; Function Attrs: mustprogress uwtable
define noundef zeroext i1 @_ZNK7openvdb5v11_06points12AttributeSeteqERKS2_(ptr nocapture noundef nonnull readonly align 8 dereferenceable(40) %this, ptr nocapture noundef nonnull readonly align 8 dereferenceable(40) %other) local_unnamed_addr #3 align 2 {
entry:
  %0 = load ptr, ptr %this, align 8
  %1 = load ptr, ptr %other, align 8
  %call.i = tail call noundef zeroext i1 @_ZNK7openvdb5v11_06points12AttributeSet10DescriptoreqERKS3_(ptr noundef nonnull align 8 dereferenceable(240) %0, ptr noundef nonnull align 8 dereferenceable(240) %1)
  br i1 %call.i, label %if.end, label %return

if.end:                                           ; preds = %entry
  %mAttrs = getelementptr inbounds i8, ptr %this, i64 16
  %_M_finish.i = getelementptr inbounds i8, ptr %this, i64 24
  %2 = load ptr, ptr %_M_finish.i, align 8
  %3 = load ptr, ptr %mAttrs, align 8
  %sub.ptr.lhs.cast.i = ptrtoint ptr %2 to i64
  %sub.ptr.rhs.cast.i = ptrtoint ptr %3 to i64
  %sub.ptr.sub.i = sub i64 %sub.ptr.lhs.cast.i, %sub.ptr.rhs.cast.i
  %mAttrs6 = getelementptr inbounds i8, ptr %other, i64 16
  %_M_finish.i6 = getelementptr inbounds i8, ptr %other, i64 24
  %4 = load ptr, ptr %_M_finish.i6, align 8
  %5 = load ptr, ptr %mAttrs6, align 8
  %sub.ptr.lhs.cast.i7 = ptrtoint ptr %4 to i64
  %sub.ptr.rhs.cast.i8 = ptrtoint ptr %5 to i64
  %sub.ptr.sub.i9 = sub i64 %sub.ptr.lhs.cast.i7, %sub.ptr.rhs.cast.i8
  %cmp.not = icmp eq i64 %sub.ptr.sub.i, %sub.ptr.sub.i9
  br i1 %cmp.not, label %for.cond.preheader, label %return

for.cond.preheader:                               ; preds = %if.end
  %cmp1223.not = icmp eq ptr %2, %3
  br i1 %cmp1223.not, label %return, label %for.body

for.cond:                                         ; preds = %for.body
  %inc = add nuw i64 %n.024, 1
  %6 = load ptr, ptr %_M_finish.i, align 8
  %7 = load ptr, ptr %mAttrs, align 8
  %sub.ptr.lhs.cast.i12 = ptrtoint ptr %6 to i64
  %sub.ptr.rhs.cast.i13 = ptrtoint ptr %7 to i64
  %sub.ptr.sub.i14 = sub i64 %sub.ptr.lhs.cast.i12, %sub.ptr.rhs.cast.i13
  %sub.ptr.div.i15 = ashr exact i64 %sub.ptr.sub.i14, 4
  %cmp12 = icmp ult i64 %inc, %sub.ptr.div.i15
  br i1 %cmp12, label %for.body, label %return, !llvm.loop !54

for.body:                                         ; preds = %for.cond.preheader, %for.cond
  %8 = phi ptr [ %7, %for.cond ], [ %3, %for.cond.preheader ]
  %n.024 = phi i64 [ %inc, %for.cond ], [ 0, %for.cond.preheader ]
  %add.ptr.i = getelementptr inbounds %"class.std::shared_ptr.18", ptr %8, i64 %n.024
  %9 = load ptr, ptr %add.ptr.i, align 8
  %10 = load ptr, ptr %mAttrs6, align 8
  %add.ptr.i16 = getelementptr inbounds %"class.std::shared_ptr.18", ptr %10, i64 %n.024
  %11 = load ptr, ptr %add.ptr.i16, align 8
  %call.i17 = tail call noundef zeroext i1 @_ZNK7openvdb5v11_06points14AttributeArrayeqERKS2_(ptr noundef nonnull align 8 dereferenceable(24) %9, ptr noundef nonnull align 8 dereferenceable(24) %11)
  br i1 %call.i17, label %for.cond, label %return

return:                                           ; preds = %for.body, %for.cond, %for.cond.preheader, %if.end, %entry
  %retval.0 = phi i1 [ false, %entry ], [ false, %if.end ], [ true, %for.cond.preheader ], [ %call.i17, %for.cond ], [ %call.i17, %for.body ]
  ret i1 %retval.0
}